; Function Attrs: mustprogress uwtable
define hidden noundef ptr @_Z5mk_orR11ast_managerjPKP4expr(ptr noundef nonnull align 8 dereferenceable(976) %0, i32 noundef %1, ptr noundef %2) local_unnamed_addr #3 {
  switch i32 %1, label %9 [
    i32 0, label %4
    i32 1, label %7
  ]

4:                                                ; preds = %3
  %5 = getelementptr inbounds nuw i8, ptr %0, i64 864
  %6 = load ptr, ptr %5, align 8, !tbaa !121
  br label %11

7:                                                ; preds = %3
  %8 = load ptr, ptr %2, align 8, !tbaa !3
  br label %11

9:                                                ; preds = %3
  %10 = tail call noundef ptr @_ZN11ast_manager6mk_appEiijPKP4expr(ptr noundef nonnull align 8 dereferenceable(976) %0, i32 noundef 0, i32 noundef 6, i32 noundef %1, ptr noundef %2)
  br label %11

11:                                               ; preds = %9, %7, %4
  %.0 = phi ptr [ %6, %4 ], [ %8, %7 ], [ %10, %9 ]
  ret ptr %.0
}